target datalayout = "e-m:e-p270:32:32-p271:32:32-p272:64:64-i64:64-i128:128-f80:128-n8:16:32:64-S128"
target triple = "x86_64-pc-linux-gnu"

%struct.libdeflate_compressor = type { ptr, ptr, i32, i64, i32, i32, %struct.deflate_freqs, %struct.block_split_stats, %struct.deflate_codes, %struct.deflate_codes, %union.anon, [4 x i8], %union.anon.1 }
%struct.deflate_freqs = type { [288 x i32], [32 x i32] }
%struct.block_split_stats = type { [10 x i32], [10 x i32], i32, i32 }
%struct.deflate_codes = type { %struct.deflate_codewords, %struct.deflate_lens }
%struct.deflate_codewords = type { [288 x i32], [32 x i32] }
%struct.deflate_lens = type { [288 x i8], [32 x i8] }
%union.anon = type { %struct.anon }
%struct.anon = type { [19 x i32], [19 x i32], [19 x i8], [320 x i32], i32, i32, i32, i32 }
%union.anon.1 = type { %struct.anon.4 }
%struct.anon.4 = type { %struct.bt_matchfinder, [1500513 x %struct.lz_match], [305000 x %struct.deflate_optimum_node], %struct.deflate_costs, %struct.deflate_costs, [32769 x i8], [10 x i32], i32, [259 x i32], [259 x i32], i32, i32, i32, i32, [12 x i8] }
%struct.bt_matchfinder = type { [65536 x [2 x i16]], [65536 x i16], [65536 x i16] }
%struct.lz_match = type { i16, i16 }
%struct.deflate_optimum_node = type { i32, i32 }
%struct.deflate_costs = type { [256 x i32], [259 x i32], [32 x i32] }

; Function Attrs: nounwind uwtable
define internal void @deflate_make_huffman_codes(ptr noundef %0, ptr noundef %1) #0 {
  %3 = alloca ptr, align 8
  %4 = alloca ptr, align 8
  store ptr %0, ptr %3, align 8, !tbaa !73
  store ptr %1, ptr %4, align 8, !tbaa !75
  %5 = load ptr, ptr %3, align 8, !tbaa !73
  %6 = getelementptr inbounds nuw %struct.deflate_freqs, ptr %5, i32 0, i32 0
  %7 = getelementptr inbounds [288 x i32], ptr %6, i64 0, i64 0
  %8 = load ptr, ptr %4, align 8, !tbaa !75
  %9 = getelementptr inbounds nuw %struct.deflate_codes, ptr %8, i32 0, i32 1
  %10 = getelementptr inbounds nuw %struct.deflate_lens, ptr %9, i32 0, i32 0
  %11 = getelementptr inbounds [288 x i8], ptr %10, i64 0, i64 0
  %12 = load ptr, ptr %4, align 8, !tbaa !75
  %13 = getelementptr inbounds nuw %struct.deflate_codes, ptr %12, i32 0, i32 0
  %14 = getelementptr inbounds nuw %struct.deflate_codewords, ptr %13, i32 0, i32 0
  %15 = getelementptr inbounds [288 x i32], ptr %14, i64 0, i64 0
  call void @deflate_make_huffman_code(i32 noundef 288, i32 noundef 14, ptr noundef %7, ptr noundef %11, ptr noundef %15)
  %16 = load ptr, ptr %3, align 8, !tbaa !73
  %17 = getelementptr inbounds nuw %struct.deflate_freqs, ptr %16, i32 0, i32 1
  %18 = getelementptr inbounds [32 x i32], ptr %17, i64 0, i64 0
  %19 = load ptr, ptr %4, align 8, !tbaa !75
  %20 = getelementptr inbounds nuw %struct.deflate_codes, ptr %19, i32 0, i32 1
  %21 = getelementptr inbounds nuw %struct.deflate_lens, ptr %20, i32 0, i32 1
  %22 = getelementptr inbounds [32 x i8], ptr %21, i64 0, i64 0
  %23 = load ptr, ptr %4, align 8, !tbaa !75
  %24 = getelementptr inbounds nuw %struct.deflate_codes, ptr %23, i32 0, i32 0
  %25 = getelementptr inbounds nuw %struct.deflate_codewords, ptr %24, i32 0, i32 1
  %26 = getelementptr inbounds [32 x i32], ptr %25, i64 0, i64 0
  call void @deflate_make_huffman_code(i32 noundef 32, i32 noundef 15, ptr noundef %18, ptr noundef %22, ptr noundef %26)
  ret void
}

; Function Attrs: nounwind uwtable
define internal void @deflate_tally_item_list(ptr noundef %0, i32 noundef %1) #0 {
  %3 = alloca ptr, align 8
  %4 = alloca i32, align 4
  %5 = alloca ptr, align 8
  %6 = alloca ptr, align 8
  %7 = alloca i32, align 4
  %8 = alloca i32, align 4
  store ptr %0, ptr %3, align 8, !tbaa !17
  store i32 %1, ptr %4, align 4, !tbaa !4
  call void @llvm.lifetime.start.p0(i64 8, ptr %5) #10
  %9 = load ptr, ptr %3, align 8, !tbaa !17
  %10 = getelementptr inbounds nuw %struct.libdeflate_compressor, ptr %9, i32 0, i32 12
  %11 = getelementptr inbounds nuw %struct.anon.4, ptr %10, i32 0, i32 2
  %12 = getelementptr inbounds [305000 x %struct.deflate_optimum_node], ptr %11, i64 0, i64 0
  store ptr %12, ptr %5, align 8, !tbaa !77
  call void @llvm.lifetime.start.p0(i64 8, ptr %6) #10
  %13 = load ptr, ptr %3, align 8, !tbaa !17
  %14 = getelementptr inbounds nuw %struct.libdeflate_compressor, ptr %13, i32 0, i32 12
  %15 = getelementptr inbounds nuw %struct.anon.4, ptr %14, i32 0, i32 2
  %16 = load i32, ptr %4, align 4, !tbaa !4
  %17 = zext i32 %16 to i64
  %18 = getelementptr inbounds nuw [305000 x %struct.deflate_optimum_node], ptr %15, i64 0, i64 %17
  store ptr %18, ptr %6, align 8, !tbaa !77
  br label %19

19:                                               ; preds = %72, %2
  call void @llvm.lifetime.start.p0(i64 4, ptr %7) #10
  %20 = load ptr, ptr %5, align 8, !tbaa !77
  %21 = getelementptr inbounds nuw %struct.deflate_optimum_node, ptr %20, i32 0, i32 1
  %22 = load i32, ptr %21, align 4, !tbaa !79
  %23 = and i32 %22, 511
  store i32 %23, ptr %7, align 4, !tbaa !4
  call void @llvm.lifetime.start.p0(i64 4, ptr %8) #10
  %24 = load ptr, ptr %5, align 8, !tbaa !77
  %25 = getelementptr inbounds nuw %struct.deflate_optimum_node, ptr %24, i32 0, i32 1
  %26 = load i32, ptr %25, align 4, !tbaa !79
  %27 = lshr i32 %26, 9
  store i32 %27, ptr %8, align 4, !tbaa !4
  %28 = load i32, ptr %7, align 4, !tbaa !4
  %29 = icmp eq i32 %28, 1
  br i1 %29, label %30, label %39

30:                                               ; preds = %19
  %31 = load ptr, ptr %3, align 8, !tbaa !17
  %32 = getelementptr inbounds nuw %struct.libdeflate_compressor, ptr %31, i32 0, i32 6
  %33 = getelementptr inbounds nuw %struct.deflate_freqs, ptr %32, i32 0, i32 0
  %34 = load i32, ptr %8, align 4, !tbaa !4
  %35 = zext i32 %34 to i64
  %36 = getelementptr inbounds nuw [288 x i32], ptr %33, i64 0, i64 %35
  %37 = load i32, ptr %36, align 4, !tbaa !4
  %38 = add i32 %37, 1
  store i32 %38, ptr %36, align 4, !tbaa !4
  br label %67

39:                                               ; preds = %19
  %40 = load ptr, ptr %3, align 8, !tbaa !17
  %41 = getelementptr inbounds nuw %struct.libdeflate_compressor, ptr %40, i32 0, i32 6
  %42 = getelementptr inbounds nuw %struct.deflate_freqs, ptr %41, i32 0, i32 0
  %43 = load i32, ptr %7, align 4, !tbaa !4
  %44 = zext i32 %43 to i64
  %45 = getelementptr inbounds nuw [259 x i8], ptr @deflate_length_slot, i64 0, i64 %44
  %46 = load i8, ptr %45, align 1, !tbaa !32
  %47 = zext i8 %46 to i32
  %48 = add nsw i32 257, %47
  %49 = sext i32 %48 to i64
  %50 = getelementptr inbounds [288 x i32], ptr %42, i64 0, i64 %49
  %51 = load i32, ptr %50, align 4, !tbaa !4
  %52 = add i32 %51, 1
  store i32 %52, ptr %50, align 4, !tbaa !4
  %53 = load ptr, ptr %3, align 8, !tbaa !17
  %54 = getelementptr inbounds nuw %struct.libdeflate_compressor, ptr %53, i32 0, i32 6
  %55 = getelementptr inbounds nuw %struct.deflate_freqs, ptr %54, i32 0, i32 1
  %56 = load ptr, ptr %3, align 8, !tbaa !17
  %57 = getelementptr inbounds nuw %struct.libdeflate_compressor, ptr %56, i32 0, i32 12
  %58 = getelementptr inbounds nuw %struct.anon.4, ptr %57, i32 0, i32 5
  %59 = load i32, ptr %8, align 4, !tbaa !4
  %60 = zext i32 %59 to i64
  %61 = getelementptr inbounds nuw [32769 x i8], ptr %58, i64 0, i64 %60
  %62 = load i8, ptr %61, align 1, !tbaa !32
  %63 = zext i8 %62 to i64
  %64 = getelementptr inbounds nuw [32 x i32], ptr %55, i64 0, i64 %63
  %65 = load i32, ptr %64, align 4, !tbaa !4
  %66 = add i32 %65, 1
  store i32 %66, ptr %64, align 4, !tbaa !4
  br label %67

67:                                               ; preds = %39, %30
  %68 = load i32, ptr %7, align 4, !tbaa !4
  %69 = load ptr, ptr %5, align 8, !tbaa !77
  %70 = zext i32 %68 to i64
  %71 = getelementptr inbounds nuw %struct.deflate_optimum_node, ptr %69, i64 %70
  store ptr %71, ptr %5, align 8, !tbaa !77
  call void @llvm.lifetime.end.p0(i64 4, ptr %8) #10
  call void @llvm.lifetime.end.p0(i64 4, ptr %7) #10
  br label %72

72:                                               ; preds = %67
  %73 = load ptr, ptr %5, align 8, !tbaa !77
  %74 = load ptr, ptr %6, align 8, !tbaa !77
  %75 = icmp ne ptr %73, %74
  br i1 %75, label %19, label %76

76:                                               ; preds = %72
  %77 = load ptr, ptr %3, align 8, !tbaa !17
  %78 = getelementptr inbounds nuw %struct.libdeflate_compressor, ptr %77, i32 0, i32 6
  %79 = getelementptr inbounds nuw %struct.deflate_freqs, ptr %78, i32 0, i32 0
  %80 = getelementptr inbounds [288 x i32], ptr %79, i64 0, i64 256
  %81 = load i32, ptr %80, align 8, !tbaa !4
  %82 = add i32 %81, 1
  store i32 %82, ptr %80, align 8, !tbaa !4
  call void @llvm.lifetime.end.p0(i64 8, ptr %6) #10
  call void @llvm.lifetime.end.p0(i64 8, ptr %5) #10
  ret void
}

; Function Attrs: nounwind uwtable
define internal void @deflate_reset_symbol_frequencies(ptr noundef %0) #0 {
  %2 = alloca ptr, align 8
  store ptr %0, ptr %2, align 8, !tbaa !17
  %3 = load ptr, ptr %2, align 8, !tbaa !17
  %4 = getelementptr inbounds nuw %struct.libdeflate_compressor, ptr %3, i32 0, i32 6
  call void @llvm.memset.p0.i64(ptr align 8 %4, i8 0, i64 1280, i1 false)
  ret void
}

; Function Attrs: nounwind uwtable
define internal void @deflate_find_min_cost_path(ptr noundef %0, i32 noundef %1, ptr noundef %2) #0 {
  %4 = alloca ptr, align 8
  %5 = alloca i32, align 4
  %6 = alloca ptr, align 8
  %7 = alloca ptr, align 8
  %8 = alloca ptr, align 8
  %9 = alloca i32, align 4
  %10 = alloca i32, align 4
  %11 = alloca i32, align 4
  %12 = alloca ptr, align 8
  %13 = alloca i32, align 4
  %14 = alloca i32, align 4
  %15 = alloca i32, align 4
  %16 = alloca i32, align 4
  %17 = alloca i32, align 4
  store ptr %0, ptr %4, align 8, !tbaa !17
  store i32 %1, ptr %5, align 4, !tbaa !4
  store ptr %2, ptr %6, align 8, !tbaa !44
  call void @llvm.lifetime.start.p0(i64 8, ptr %7) #10
  %18 = load ptr, ptr %4, align 8, !tbaa !17
  %19 = getelementptr inbounds nuw %struct.libdeflate_compressor, ptr %18, i32 0, i32 12
  %20 = getelementptr inbounds nuw %struct.anon.4, ptr %19, i32 0, i32 2
  %21 = load i32, ptr %5, align 4, !tbaa !4
  %22 = zext i32 %21 to i64
  %23 = getelementptr inbounds nuw [305000 x %struct.deflate_optimum_node], ptr %20, i64 0, i64 %22
  store ptr %23, ptr %7, align 8, !tbaa !77
  call void @llvm.lifetime.start.p0(i64 8, ptr %8) #10
  %24 = load ptr, ptr %7, align 8, !tbaa !77
  store ptr %24, ptr %8, align 8, !tbaa !77
  %25 = load ptr, ptr %8, align 8, !tbaa !77
  %26 = getelementptr inbounds nuw %struct.deflate_optimum_node, ptr %25, i32 0, i32 0
  store i32 0, ptr %26, align 4, !tbaa !92
  br label %27

27:                                               ; preds = %141, %3
  call void @llvm.lifetime.start.p0(i64 4, ptr %9) #10
  call void @llvm.lifetime.start.p0(i64 4, ptr %10) #10
  call void @llvm.lifetime.start.p0(i64 4, ptr %11) #10
  %28 = load ptr, ptr %8, align 8, !tbaa !77
  %29 = getelementptr inbounds %struct.deflate_optimum_node, ptr %28, i32 -1
  store ptr %29, ptr %8, align 8, !tbaa !77
  %30 = load ptr, ptr %6, align 8, !tbaa !44
  %31 = getelementptr inbounds %struct.lz_match, ptr %30, i32 -1
  store ptr %31, ptr %6, align 8, !tbaa !44
  %32 = load ptr, ptr %6, align 8, !tbaa !44
  %33 = getelementptr inbounds nuw %struct.lz_match, ptr %32, i32 0, i32 0
  %34 = load i16, ptr %33, align 2, !tbaa !47
  %35 = zext i16 %34 to i32
  store i32 %35, ptr %9, align 4, !tbaa !4
  %36 = load ptr, ptr %6, align 8, !tbaa !44
  %37 = getelementptr inbounds nuw %struct.lz_match, ptr %36, i32 0, i32 1
  %38 = load i16, ptr %37, align 2, !tbaa !50
  %39 = zext i16 %38 to i32
  store i32 %39, ptr %10, align 4, !tbaa !4
  %40 = load ptr, ptr %4, align 8, !tbaa !17
  %41 = getelementptr inbounds nuw %struct.libdeflate_compressor, ptr %40, i32 0, i32 12
  %42 = getelementptr inbounds nuw %struct.anon.4, ptr %41, i32 0, i32 3
  %43 = getelementptr inbounds nuw %struct.deflate_costs, ptr %42, i32 0, i32 0
  %44 = load i32, ptr %10, align 4, !tbaa !4
  %45 = zext i32 %44 to i64
  %46 = getelementptr inbounds nuw [256 x i32], ptr %43, i64 0, i64 %45
  %47 = load i32, ptr %46, align 4, !tbaa !32
  %48 = load ptr, ptr %8, align 8, !tbaa !77
  %49 = getelementptr inbounds %struct.deflate_optimum_node, ptr %48, i64 1
  %50 = getelementptr inbounds nuw %struct.deflate_optimum_node, ptr %49, i32 0, i32 0
  %51 = load i32, ptr %50, align 4, !tbaa !92
  %52 = add i32 %47, %51
  store i32 %52, ptr %11, align 4, !tbaa !4
  %53 = load i32, ptr %10, align 4, !tbaa !4
  %54 = shl i32 %53, 9
  %55 = or i32 %54, 1
  %56 = load ptr, ptr %8, align 8, !tbaa !77
  %57 = getelementptr inbounds nuw %struct.deflate_optimum_node, ptr %56, i32 0, i32 1
  store i32 %55, ptr %57, align 4, !tbaa !79
  %58 = load i32, ptr %9, align 4, !tbaa !4
  %59 = icmp ne i32 %58, 0
  br i1 %59, label %60, label %137

60:                                               ; preds = %27
  call void @llvm.lifetime.start.p0(i64 8, ptr %12) #10
  call void @llvm.lifetime.start.p0(i64 4, ptr %13) #10
  call void @llvm.lifetime.start.p0(i64 4, ptr %14) #10
  call void @llvm.lifetime.start.p0(i64 4, ptr %15) #10
  call void @llvm.lifetime.start.p0(i64 4, ptr %16) #10
  call void @llvm.lifetime.start.p0(i64 4, ptr %17) #10
  %61 = load ptr, ptr %6, align 8, !tbaa !44
  %62 = load i32, ptr %9, align 4, !tbaa !4
  %63 = zext i32 %62 to i64
  %64 = sub i64 0, %63
  %65 = getelementptr inbounds %struct.lz_match, ptr %61, i64 %64
  store ptr %65, ptr %12, align 8, !tbaa !44
  store i32 3, ptr %13, align 4, !tbaa !4
  br label %66

66:                                               ; preds = %126, %60
  %67 = load ptr, ptr %12, align 8, !tbaa !44
  %68 = getelementptr inbounds nuw %struct.lz_match, ptr %67, i32 0, i32 1
  %69 = load i16, ptr %68, align 2, !tbaa !50
  %70 = zext i16 %69 to i32
  store i32 %70, ptr %14, align 4, !tbaa !4
  %71 = load ptr, ptr %4, align 8, !tbaa !17
  %72 = getelementptr inbounds nuw %struct.libdeflate_compressor, ptr %71, i32 0, i32 12
  %73 = getelementptr inbounds nuw %struct.anon.4, ptr %72, i32 0, i32 5
  %74 = load i32, ptr %14, align 4, !tbaa !4
  %75 = zext i32 %74 to i64
  %76 = getelementptr inbounds nuw [32769 x i8], ptr %73, i64 0, i64 %75
  %77 = load i8, ptr %76, align 1, !tbaa !32
  %78 = zext i8 %77 to i32
  store i32 %78, ptr %15, align 4, !tbaa !4
  %79 = load ptr, ptr %4, align 8, !tbaa !17
  %80 = getelementptr inbounds nuw %struct.libdeflate_compressor, ptr %79, i32 0, i32 12
  %81 = getelementptr inbounds nuw %struct.anon.4, ptr %80, i32 0, i32 3
  %82 = getelementptr inbounds nuw %struct.deflate_costs, ptr %81, i32 0, i32 2
  %83 = load i32, ptr %15, align 4, !tbaa !4
  %84 = zext i32 %83 to i64
  %85 = getelementptr inbounds nuw [32 x i32], ptr %82, i64 0, i64 %84
  %86 = load i32, ptr %85, align 4, !tbaa !32
  store i32 %86, ptr %16, align 4, !tbaa !4
  br label %87

87:                                               ; preds = %117, %66
  %88 = load i32, ptr %16, align 4, !tbaa !4
  %89 = load ptr, ptr %4, align 8, !tbaa !17
  %90 = getelementptr inbounds nuw %struct.libdeflate_compressor, ptr %89, i32 0, i32 12
  %91 = getelementptr inbounds nuw %struct.anon.4, ptr %90, i32 0, i32 3
  %92 = getelementptr inbounds nuw %struct.deflate_costs, ptr %91, i32 0, i32 1
  %93 = load i32, ptr %13, align 4, !tbaa !4
  %94 = zext i32 %93 to i64
  %95 = getelementptr inbounds nuw [259 x i32], ptr %92, i64 0, i64 %94
  %96 = load i32, ptr %95, align 4, !tbaa !32
  %97 = add i32 %88, %96
  %98 = load ptr, ptr %8, align 8, !tbaa !77
  %99 = load i32, ptr %13, align 4, !tbaa !4
  %100 = zext i32 %99 to i64
  %101 = getelementptr inbounds nuw %struct.deflate_optimum_node, ptr %98, i64 %100
  %102 = getelementptr inbounds nuw %struct.deflate_optimum_node, ptr %101, i32 0, i32 0
  %103 = load i32, ptr %102, align 4, !tbaa !92
  %104 = add i32 %97, %103
  store i32 %104, ptr %17, align 4, !tbaa !4
  %105 = load i32, ptr %17, align 4, !tbaa !4
  %106 = load i32, ptr %11, align 4, !tbaa !4
  %107 = icmp ult i32 %105, %106
  br i1 %107, label %108, label %116

108:                                              ; preds = %87
  %109 = load i32, ptr %17, align 4, !tbaa !4
  store i32 %109, ptr %11, align 4, !tbaa !4
  %110 = load i32, ptr %13, align 4, !tbaa !4
  %111 = load i32, ptr %14, align 4, !tbaa !4
  %112 = shl i32 %111, 9
  %113 = or i32 %110, %112
  %114 = load ptr, ptr %8, align 8, !tbaa !77
  %115 = getelementptr inbounds nuw %struct.deflate_optimum_node, ptr %114, i32 0, i32 1
  store i32 %113, ptr %115, align 4, !tbaa !79
  br label %116

116:                                              ; preds = %108, %87
  br label %117

117:                                              ; preds = %116
  %118 = load i32, ptr %13, align 4, !tbaa !4
  %119 = add i32 %118, 1
  store i32 %119, ptr %13, align 4, !tbaa !4
  %120 = load ptr, ptr %12, align 8, !tbaa !44
  %121 = getelementptr inbounds nuw %struct.lz_match, ptr %120, i32 0, i32 0
  %122 = load i16, ptr %121, align 2, !tbaa !47
  %123 = zext i16 %122 to i32
  %124 = icmp ule i32 %119, %123
  br i1 %124, label %87, label %125

125:                                              ; preds = %117
  br label %126

126:                                              ; preds = %125
  %127 = load ptr, ptr %12, align 8, !tbaa !44
  %128 = getelementptr inbounds nuw %struct.lz_match, ptr %127, i32 1
  store ptr %128, ptr %12, align 8, !tbaa !44
  %129 = load ptr, ptr %6, align 8, !tbaa !44
  %130 = icmp ne ptr %128, %129
  br i1 %130, label %66, label %131

131:                                              ; preds = %126
  %132 = load i32, ptr %9, align 4, !tbaa !4
  %133 = load ptr, ptr %6, align 8, !tbaa !44
  %134 = zext i32 %132 to i64
  %135 = sub i64 0, %134
  %136 = getelementptr inbounds %struct.lz_match, ptr %133, i64 %135
  store ptr %136, ptr %6, align 8, !tbaa !44
  call void @llvm.lifetime.end.p0(i64 4, ptr %17) #10
  call void @llvm.lifetime.end.p0(i64 4, ptr %16) #10
  call void @llvm.lifetime.end.p0(i64 4, ptr %15) #10
  call void @llvm.lifetime.end.p0(i64 4, ptr %14) #10
  call void @llvm.lifetime.end.p0(i64 4, ptr %13) #10
  call void @llvm.lifetime.end.p0(i64 8, ptr %12) #10
  br label %137

137:                                              ; preds = %131, %27
  %138 = load i32, ptr %11, align 4, !tbaa !4
  %139 = load ptr, ptr %8, align 8, !tbaa !77
  %140 = getelementptr inbounds nuw %struct.deflate_optimum_node, ptr %139, i32 0, i32 0
  store i32 %138, ptr %140, align 4, !tbaa !92
  call void @llvm.lifetime.end.p0(i64 4, ptr %11) #10
  call void @llvm.lifetime.end.p0(i64 4, ptr %10) #10
  call void @llvm.lifetime.end.p0(i64 4, ptr %9) #10
  br label %141

141:                                              ; preds = %137
  %142 = load ptr, ptr %8, align 8, !tbaa !77
  %143 = load ptr, ptr %4, align 8, !tbaa !17
  %144 = getelementptr inbounds nuw %struct.libdeflate_compressor, ptr %143, i32 0, i32 12
  %145 = getelementptr inbounds nuw %struct.anon.4, ptr %144, i32 0, i32 2
  %146 = getelementptr inbounds [305000 x %struct.deflate_optimum_node], ptr %145, i64 0, i64 0
  %147 = icmp ne ptr %142, %146
  br i1 %147, label %27, label %148

148:                                              ; preds = %141
  %149 = load ptr, ptr %4, align 8, !tbaa !17
  call void @deflate_reset_symbol_frequencies(ptr noundef %149)
  %150 = load ptr, ptr %4, align 8, !tbaa !17
  %151 = load i32, ptr %5, align 4, !tbaa !4
  call void @deflate_tally_item_list(ptr noundef %150, i32 noundef %151)
  %152 = load ptr, ptr %4, align 8, !tbaa !17
  %153 = getelementptr inbounds nuw %struct.libdeflate_compressor, ptr %152, i32 0, i32 6
  %154 = load ptr, ptr %4, align 8, !tbaa !17
  %155 = getelementptr inbounds nuw %struct.libdeflate_compressor, ptr %154, i32 0, i32 8
  call void @deflate_make_huffman_codes(ptr noundef %153, ptr noundef %155)
  call void @llvm.lifetime.end.p0(i64 8, ptr %8) #10
  call void @llvm.lifetime.end.p0(i64 8, ptr %7) #10
  ret void
}