; Function Attrs: nofree norecurse nosync nounwind memory(argmem: readwrite) uwtable
define internal fastcc void @deflate_find_min_cost_path(ptr noundef captures(address) %0, i32 noundef %1, ptr noundef readonly captures(none) %2) unnamed_addr #4 {
  %4 = zext i32 %1 to i64
  %.idx = shl nuw nsw i64 %4, 3
  %.add63 = add nuw nsw i64 %.idx, 6532420
  %.ptr65 = getelementptr inbounds nuw i8, ptr %0, i64 %.add63
  store i32 0, ptr %.ptr65, align 4, !tbaa !63
  %5 = getelementptr inbounds nuw i8, ptr %0, i64 8972420
  %6 = getelementptr inbounds nuw i8, ptr %0, i64 8976796
  %7 = getelementptr inbounds nuw i8, ptr %0, i64 8974480
  %8 = getelementptr inbounds nuw i8, ptr %0, i64 8973444
  %invariant.gep = getelementptr i8, ptr %0, i64 -4
  br label %9

9:                                                ; preds = %.loopexit, %3
  %10 = phi i32 [ 0, %3 ], [ %.047, %.loopexit ]
  %.046.idx = phi i64 [ %.add63, %3 ], [ %.046.add, %.loopexit ]
  %.0 = phi ptr [ %2, %3 ], [ %.1, %.loopexit ]
  %.046.add = add nsw i64 %.046.idx, -8
  %.ptr = getelementptr inbounds i8, ptr %0, i64 %.046.add
  %.ptr60 = getelementptr inbounds i8, ptr %.0, i64 -4
  %11 = load i16, ptr %.ptr60, align 2, !tbaa !50
  %12 = getelementptr inbounds i8, ptr %.0, i64 -2
  %13 = load i16, ptr %12, align 2, !tbaa !52
  %14 = zext i16 %13 to i32
  %15 = zext i16 %13 to i64
  %16 = getelementptr inbounds nuw [256 x i32], ptr %5, i64 0, i64 %15
  %17 = load i32, ptr %16, align 4, !tbaa !25
  %18 = add i32 %10, %17
  %19 = shl nuw nsw i32 %14, 9
  %20 = or disjoint i32 %19, 1
  %gep = getelementptr i8, ptr %invariant.gep, i64 %.046.idx
  store i32 %20, ptr %gep, align 4, !tbaa !58
  %.not = icmp eq i16 %11, 0
  br i1 %.not, label %.loopexit, label %21

21:                                               ; preds = %9
  %22 = zext i16 %11 to i64
  %23 = shl nuw nsw i64 %22, 2
  %.add = sub nuw nsw i64 -4, %23
  br label %24

24:                                               ; preds = %50, %21
  %.050 = phi i32 [ 3, %21 ], [ %49, %50 ]
  %.049.idx = phi i64 [ %.add, %21 ], [ %.049.add, %50 ]
  %.148 = phi i32 [ %18, %21 ], [ %.3, %50 ]
  %.049.ptr = getelementptr inbounds i8, ptr %.0, i64 %.049.idx
  %25 = getelementptr inbounds nuw i8, ptr %.049.ptr, i64 2
  %26 = load i16, ptr %25, align 2, !tbaa !52
  %27 = zext i16 %26 to i32
  %28 = zext i16 %26 to i64
  %29 = getelementptr inbounds nuw [32769 x i8], ptr %6, i64 0, i64 %28
  %30 = load i8, ptr %29, align 1, !tbaa !25
  %31 = zext i8 %30 to i64
  %32 = getelementptr inbounds nuw [32 x i32], ptr %7, i64 0, i64 %31
  %33 = load i32, ptr %32, align 4, !tbaa !25
  %34 = load i16, ptr %.049.ptr, align 2, !tbaa !50
  %35 = zext i16 %34 to i32
  %36 = shl nuw nsw i32 %27, 9
  br label %37

37:                                               ; preds = %48, %24
  %.151 = phi i32 [ %.050, %24 ], [ %49, %48 ]
  %.2 = phi i32 [ %.148, %24 ], [ %.3, %48 ]
  %38 = zext i32 %.151 to i64
  %39 = getelementptr inbounds nuw [259 x i32], ptr %8, i64 0, i64 %38
  %40 = load i32, ptr %39, align 4, !tbaa !25
  %41 = add i32 %40, %33
  %42 = getelementptr inbounds nuw %struct.deflate_optimum_node, ptr %.ptr, i64 %38
  %43 = load i32, ptr %42, align 4, !tbaa !63
  %44 = add i32 %41, %43
  %45 = icmp ult i32 %44, %.2
  br i1 %45, label %46, label %48

46:                                               ; preds = %37
  %47 = or i32 %.151, %36
  store i32 %47, ptr %gep, align 4, !tbaa !58
  br label %48

48:                                               ; preds = %37, %46
  %.3 = phi i32 [ %44, %46 ], [ %.2, %37 ]
  %49 = add i32 %.151, 1
  %.not58 = icmp ugt i32 %49, %35
  br i1 %.not58, label %50, label %37

50:                                               ; preds = %48
  %.049.add = add nsw i64 %.049.idx, 4
  %.not59 = icmp eq i64 %.049.add, -4
  br i1 %.not59, label %.loopexit.loopexit, label %24

.loopexit.loopexit:                               ; preds = %50
  %.ptr61 = getelementptr inbounds i8, ptr %.0, i64 %.add
  br label %.loopexit

.loopexit:                                        ; preds = %.loopexit.loopexit, %9
  %.047 = phi i32 [ %18, %9 ], [ %.3, %.loopexit.loopexit ]
  %.1 = phi ptr [ %.ptr60, %9 ], [ %.ptr61, %.loopexit.loopexit ]
  store i32 %.047, ptr %.ptr, align 4, !tbaa !63
  %.not62 = icmp eq i64 %.046.add, 6532420
  br i1 %.not62, label %51, label %9

51:                                               ; preds = %.loopexit
  %52 = getelementptr inbounds nuw i8, ptr %0, i64 40
  tail call void @llvm.memset.p0.i64(ptr noundef nonnull align 8 dereferenceable(1280) %52, i8 0, i64 1280, i1 false)
  %53 = getelementptr inbounds nuw i8, ptr %0, i64 6532420
  %54 = getelementptr inbounds nuw [305000 x %struct.deflate_optimum_node], ptr %53, i64 0, i64 %4
  %55 = getelementptr inbounds nuw i8, ptr %0, i64 1192
  br label %56

56:                                               ; preds = %83, %51
  %.0.i = phi ptr [ %53, %51 ], [ %84, %83 ]
  %57 = getelementptr inbounds nuw i8, ptr %.0.i, i64 4
  %58 = load i32, ptr %57, align 4, !tbaa !58
  %59 = and i32 %58, 511
  %60 = lshr i32 %58, 9
  %61 = icmp eq i32 %59, 1
  br i1 %61, label %62, label %67

62:                                               ; preds = %56
  %63 = zext nneg i32 %60 to i64
  %64 = getelementptr inbounds nuw [288 x i32], ptr %52, i64 0, i64 %63
  %65 = load i32, ptr %64, align 4, !tbaa !26
  %66 = add i32 %65, 1
  store i32 %66, ptr %64, align 4, !tbaa !26
  br label %83

67:                                               ; preds = %56
  %68 = zext nneg i32 %59 to i64
  %69 = getelementptr inbounds nuw [259 x i8], ptr @deflate_length_slot, i64 0, i64 %68
  %70 = load i8, ptr %69, align 1, !tbaa !25
  %71 = zext i8 %70 to i64
  %72 = add nuw nsw i64 %71, 257
  %73 = getelementptr inbounds nuw [288 x i32], ptr %52, i64 0, i64 %72
  %74 = load i32, ptr %73, align 4, !tbaa !26
  %75 = add i32 %74, 1
  store i32 %75, ptr %73, align 4, !tbaa !26
  %76 = zext nneg i32 %60 to i64
  %77 = getelementptr inbounds nuw [32769 x i8], ptr %6, i64 0, i64 %76
  %78 = load i8, ptr %77, align 1, !tbaa !25
  %79 = zext i8 %78 to i64
  %80 = getelementptr inbounds nuw [32 x i32], ptr %55, i64 0, i64 %79
  %81 = load i32, ptr %80, align 4, !tbaa !26
  %82 = add i32 %81, 1
  store i32 %82, ptr %80, align 4, !tbaa !26
  br label %83

83:                                               ; preds = %67, %62
  %.pre-phi.i = phi i64 [ %68, %67 ], [ 1, %62 ]
  %84 = getelementptr inbounds nuw %struct.deflate_optimum_node, ptr %.0.i, i64 %.pre-phi.i
  %.not.i = icmp eq ptr %84, %54
  br i1 %.not.i, label %deflate_tally_item_list.exit, label %56

deflate_tally_item_list.exit:                     ; preds = %83
  %85 = getelementptr inbounds nuw i8, ptr %0, i64 1064
  %86 = load i32, ptr %85, align 8, !tbaa !26
  %87 = add i32 %86, 1
  store i32 %87, ptr %85, align 8, !tbaa !26
  %88 = getelementptr inbounds nuw i8, ptr %0, i64 1408
  %89 = getelementptr inbounds nuw i8, ptr %0, i64 2688
  tail call fastcc void @deflate_make_huffman_code(i32 noundef 288, i32 noundef 14, ptr noundef nonnull readonly %52, ptr noundef nonnull %89, ptr noundef nonnull %88)
  %90 = getelementptr inbounds nuw i8, ptr %0, i64 2976
  %91 = getelementptr inbounds nuw i8, ptr %0, i64 2560
  tail call fastcc void @deflate_make_huffman_code(i32 noundef 32, i32 noundef 15, ptr noundef nonnull readonly %55, ptr noundef nonnull %90, ptr noundef nonnull %91)
  ret void
}